target datalayout = "e-m:e-p270:32:32-p271:32:32-p272:64:64-i64:64-i128:128-f80:128-n8:16:32:64-S128"
target triple = "x86_64-pc-linux-gnu"

@.str = private unnamed_addr constant [124 x i8] c"generated/home/dtcxzyw/WorkSpace/Projects/compilers/llvm-opt-benchmark/bench/libquic/libquic/boringssl/crypto/ecdsa/ecdsa.c\00", align 1

; Function Attrs: nounwind uwtable
define hidden i32 @ECDSA_verify(i32 noundef %0, ptr noundef %1, i64 noundef %2, ptr noundef %3, i64 noundef %4, ptr noundef %5) #0 {
  %7 = alloca i32, align 4
  %8 = alloca ptr, align 8
  %9 = alloca i64, align 8
  %10 = alloca ptr, align 8
  %11 = alloca i64, align 8
  %12 = alloca ptr, align 8
  %13 = alloca ptr, align 8
  %14 = alloca i32, align 4
  %15 = alloca ptr, align 8
  %16 = alloca i64, align 8
  store i32 %0, ptr %7, align 4, !tbaa !6
  store ptr %1, ptr %8, align 8, !tbaa !10
  store i64 %2, ptr %9, align 8, !tbaa !13
  store ptr %3, ptr %10, align 8, !tbaa !10
  store i64 %4, ptr %11, align 8, !tbaa !13
  store ptr %5, ptr %12, align 8, !tbaa !17
  call void @llvm.lifetime.start.p0(i64 8, ptr %13) #5
  call void @llvm.lifetime.start.p0(i64 4, ptr %14) #5
  store i32 0, ptr %14, align 4, !tbaa !6
  call void @llvm.lifetime.start.p0(i64 8, ptr %15) #5
  store ptr null, ptr %15, align 8, !tbaa !10
  %17 = load ptr, ptr %10, align 8, !tbaa !10
  %18 = load i64, ptr %11, align 8, !tbaa !13
  %19 = call ptr @ECDSA_SIG_from_bytes(ptr noundef %17, i64 noundef %18)
  store ptr %19, ptr %13, align 8, !tbaa !31
  %20 = load ptr, ptr %13, align 8, !tbaa !31
  %21 = icmp eq ptr %20, null
  br i1 %21, label %22, label %23

22:                                               ; preds = %6
  br label %44

23:                                               ; preds = %6
  %24 = load ptr, ptr %13, align 8, !tbaa !31
  %25 = call i32 @ECDSA_SIG_to_bytes(ptr noundef %15, ptr noundef %16, ptr noundef %24)
  %26 = icmp ne i32 %25, 0
  br i1 %26, label %27, label %37

27:                                               ; preds = %23
  %28 = load i64, ptr %16, align 8, !tbaa !13
  %29 = load i64, ptr %11, align 8, !tbaa !13
  %30 = icmp ne i64 %28, %29
  br i1 %30, label %37, label %31

31:                                               ; preds = %27
  %32 = load ptr, ptr %10, align 8, !tbaa !10
  %33 = load ptr, ptr %15, align 8, !tbaa !10
  %34 = load i64, ptr %11, align 8, !tbaa !13
  %35 = call i32 @memcmp(ptr noundef %32, ptr noundef %33, i64 noundef %34) #6
  %36 = icmp ne i32 %35, 0
  br i1 %36, label %37, label %38

37:                                               ; preds = %31, %27, %23
  call void @ERR_put_error(i32 noundef 26, i32 noundef 0, i32 noundef 68, ptr noundef @.str, i32 noundef 93)
  br label %44

38:                                               ; preds = %31
  %39 = load ptr, ptr %8, align 8, !tbaa !10
  %40 = load i64, ptr %9, align 8, !tbaa !13
  %41 = load ptr, ptr %13, align 8, !tbaa !31
  %42 = load ptr, ptr %12, align 8, !tbaa !17
  %43 = call i32 @ECDSA_do_verify(ptr noundef %39, i64 noundef %40, ptr noundef %41, ptr noundef %42)
  store i32 %43, ptr %14, align 4, !tbaa !6
  br label %44

44:                                               ; preds = %38, %37, %22
  %45 = load ptr, ptr %15, align 8, !tbaa !10
  call void @free(ptr noundef %45) #5
  %46 = load ptr, ptr %13, align 8, !tbaa !31
  call void @ECDSA_SIG_free(ptr noundef %46)
  %47 = load i32, ptr %14, align 4, !tbaa !6
  call void @llvm.lifetime.end.p0(i64 8, ptr %15) #5
  call void @llvm.lifetime.end.p0(i64 4, ptr %14) #5
  call void @llvm.lifetime.end.p0(i64 8, ptr %13) #5
  ret i32 %47
}