; Function Attrs: nounwind uwtable
define hidden range(i32 0, 2) i32 @ECDSA_verify(i32 noundef %0, ptr noundef %1, i64 noundef %2, ptr noundef %3, i64 noundef %4, ptr noundef %5) local_unnamed_addr #0 {
  %7 = alloca ptr, align 8
  %8 = alloca i64, align 8
  call void @llvm.lifetime.start.p0(i64 8, ptr nonnull %7) #5
  store ptr null, ptr %7, align 8, !tbaa !24
  %9 = tail call ptr @ECDSA_SIG_from_bytes(ptr noundef %3, i64 noundef %4) #5
  %10 = icmp eq ptr %9, null
  br i1 %10, label %19, label %11

11:                                               ; preds = %6
  %12 = call i32 @ECDSA_SIG_to_bytes(ptr noundef nonnull %7, ptr noundef nonnull %8, ptr noundef nonnull %9) #5
  %.not = icmp ne i32 %12, 0
  %13 = load i64, ptr %8, align 8
  %.not14 = icmp eq i64 %13, %4
  %or.cond = select i1 %.not, i1 %.not14, i1 false
  br i1 %or.cond, label %14, label %16

14:                                               ; preds = %11
  %15 = load ptr, ptr %7, align 8, !tbaa !24
  %bcmp = call i32 @bcmp(ptr %3, ptr %15, i64 %4)
  %.not15 = icmp eq i32 %bcmp, 0
  br i1 %.not15, label %17, label %16

16:                                               ; preds = %14, %11
  call void @ERR_put_error(i32 noundef 26, i32 noundef 0, i32 noundef 68, ptr noundef nonnull @.str, i32 noundef 93) #5
  br label %19

17:                                               ; preds = %14
  %18 = call i32 @ECDSA_do_verify(ptr noundef %1, i64 noundef %2, ptr noundef nonnull %9, ptr noundef %5)
  br label %19

19:                                               ; preds = %6, %17, %16
  %.0 = phi i32 [ 0, %6 ], [ 0, %16 ], [ %18, %17 ]
  %20 = load ptr, ptr %7, align 8, !tbaa !24
  call void @free(ptr noundef %20) #5
  call void @ECDSA_SIG_free(ptr noundef %9) #5
  call void @llvm.lifetime.end.p0(i64 8, ptr nonnull %7) #5
  ret i32 %.0
}